target datalayout = "e-m:e-p270:32:32-p271:32:32-p272:64:64-i64:64-i128:128-f80:128-n8:16:32:64-S128"
target triple = "x86_64-pc-linux-gnu"

%struct.HEVCContext = type { ptr, ptr, ptr, i32, [2 x %struct.HEVCLayerContext], i32, i32, i32, i8, ptr, %struct.HEVCParamSets, %struct.HEVCSEI, ptr, [7 x %struct.RefPicList], ptr, ptr, %struct.SliceHeader, i32, i32, ptr, ptr, i32, i32, i32, i32, i32, i32, i32, %struct.HEVCPredContext, %struct.HEVCDSPContext, %struct.VideoDSPContext, %struct.BswapDSPContext, %struct.H274FilmGrainDatabase, ptr, i32, %struct.HEVCCABACState, ptr, i32, i32, ptr, %struct.H2645Packet, i32, i32, i32, i32, ptr, i32, ptr, i32, ptr, i32, i32, i32, i32, i64, ptr, %struct.DOVIContext }
%struct.HEVCLayerContext = type { [32 x %struct.HEVCFrame], ptr, ptr, i32, i32, ptr, ptr, ptr, ptr, ptr, ptr, ptr, ptr, ptr, ptr, ptr, ptr, [3 x ptr], [3 x ptr], ptr, ptr }
%struct.HEVCFrame = type { %union.anon, ptr, i32, ptr, ptr, ptr, i32, i32, ptr, ptr, i32, ptr, i32, i8 }
%union.anon = type { %struct.ProgressFrame }
%struct.ProgressFrame = type { ptr, ptr }
%struct.HEVCParamSets = type { [16 x ptr], [16 x ptr], [64 x ptr] }
%struct.HEVCSEI = type { %struct.H2645SEI, %struct.HEVCSEIPictureHash, %struct.HEVCSEIPictureTiming, i32, %struct.HEVCSEITimeCode, %struct.HEVCSEITDRDI, %struct.HEVCSEIRecoveryPoint }
%struct.H2645SEI = type { %struct.H2645SEIA53Caption, %struct.H2645SEIAFD, %struct.HEVCSEIDynamicHDRPlus, %struct.HEVCSEIDynamicHDRVivid, %struct.HEVCSEILCEVC, %struct.H2645SEIUnregistered, %struct.H2645SEIFramePacking, %struct.H2645SEIDisplayOrientation, %struct.H2645SEIAlternativeTransfer, %struct.H2645SEIAmbientViewingEnvironment, %struct.H2645SEIMasteringDisplay, %struct.H2645SEIContentLight, %struct.AVFilmGrainAFGS1Params, ptr }
%struct.H2645SEIA53Caption = type { ptr }
%struct.H2645SEIAFD = type { i32, i8 }
%struct.HEVCSEIDynamicHDRPlus = type { ptr }
%struct.HEVCSEIDynamicHDRVivid = type { ptr }
%struct.HEVCSEILCEVC = type { ptr }
%struct.H2645SEIUnregistered = type { ptr, i32, i32 }
%struct.H2645SEIFramePacking = type { i32, i32, i32, i32, i32, i32, i32, i32 }
%struct.H2645SEIDisplayOrientation = type { i32, i32, i32, i32 }
%struct.H2645SEIAlternativeTransfer = type { i32, i32 }
%struct.H2645SEIAmbientViewingEnvironment = type { i32, i32, i16, i16 }
%struct.H2645SEIMasteringDisplay = type { i32, [3 x [2 x i16]], [2 x i16], i32, i32 }
%struct.H2645SEIContentLight = type { i32, i16, i16 }
%struct.AVFilmGrainAFGS1Params = type { i32, [8 x ptr] }
%struct.HEVCSEIPictureHash = type { [3 x [16 x i8]], i8 }
%struct.HEVCSEIPictureTiming = type { i32 }
%struct.HEVCSEITimeCode = type { i32, i8, [3 x i8], [3 x i8], [3 x i8], [3 x i8], [3 x i8], [3 x i8], [3 x i16], [3 x i8], [3 x i8], [3 x i8], [3 x i8], [3 x i8], [3 x i8], [3 x i8], [3 x i32] }
%struct.HEVCSEITDRDI = type { i8, i8, i8, i8, [32 x i16], [32 x i16], [32 x i8], [32 x i8], [32 x i8], [32 x i8], [32 x i8], [32 x i16], i8 }
%struct.HEVCSEIRecoveryPoint = type { i16, i8, i8, i8 }
%struct.RefPicList = type { [16 x ptr], [16 x i32], [16 x i32], i32 }
%struct.SliceHeader = type { i32, i32, i32, i32, i32, i32, i8, i8, i8, i8, i8, i32, i32, %struct.ShortTermRPS, ptr, i32, %struct.LongTermRPS, [2 x [32 x i32]], [2 x i8], i8, i8, [2 x i32], [3 x i8], i8, i8, i8, i8, i8, i32, i32, i32, i32, i32, i32, i32, i8, i32, i32, i8, i8, ptr, ptr, ptr, i32, i8, i8, i16, [16 x i16], [16 x [2 x i16]], [16 x [2 x i16]], [16 x i16], [16 x i16], [16 x [2 x i16]], [16 x i16], [16 x [2 x i16]], i32, i32 }
%struct.ShortTermRPS = type { [32 x i32], i32, i8, i8, i8, i8, i16, i8 }
%struct.LongTermRPS = type { [32 x i32], [32 x i8], [32 x i8], i8 }
%struct.HEVCPredContext = type { [4 x ptr], [4 x ptr], ptr, [4 x ptr] }
%struct.HEVCDSPContext = type { ptr, [4 x ptr], ptr, ptr, ptr, [4 x ptr], [4 x ptr], [5 x ptr], [5 x ptr], [2 x ptr], [10 x [2 x [2 x ptr]]], [10 x [2 x [2 x ptr]]], [10 x [2 x [2 x ptr]]], [10 x [2 x [2 x ptr]]], [10 x [2 x [2 x ptr]]], [10 x [2 x [2 x ptr]]], [10 x [2 x [2 x ptr]]], [10 x [2 x [2 x ptr]]], [10 x [2 x [2 x ptr]]], [10 x [2 x [2 x ptr]]], ptr, ptr, ptr, ptr, ptr, ptr, ptr, ptr }
%struct.VideoDSPContext = type { ptr, ptr }
%struct.BswapDSPContext = type { ptr, ptr }
%struct.H274FilmGrainDatabase = type { [13 x [13 x [64 x [64 x i8]]]], [13 x i16], [64 x [64 x i16]] }
%struct.HEVCCABACState = type { [199 x i8], [4 x i8] }
%struct.H2645Packet = type { ptr, %struct.H2645RBSP, i32, i32, i32 }
%struct.H2645RBSP = type { ptr, ptr, i32, i32 }
%struct.DOVIContext = type { ptr, i32, %struct.AVDOVIDecoderConfigurationRecord, %struct.AVDOVIRpuDataHeader, ptr, ptr, ptr, ptr, [16 x ptr], ptr, i32 }
%struct.AVDOVIDecoderConfigurationRecord = type { i8, i8, i8, i8, i8, i8, i8, i8, i8 }
%struct.AVDOVIRpuDataHeader = type { i8, i16, i8, i8, i8, i8, i8, i8, i8, i8, i8, i8, i8, i8, i8, i8, i8 }
%struct.PTL = type { %struct.PTLCommon, [7 x %struct.PTLCommon], [7 x i8], [7 x i8] }
%struct.PTLCommon = type { i8, i8, i8, [32 x i8], i8, i8, i8, i8, i8, i8, i8, i8, i8, i8, i8, i8, i8, i8, i8, i8 }
%struct.AVRational = type { i32, i32 }
%struct.HEVCSPS = type { i32, i32, %struct.HEVCWindow, %struct.HEVCWindow, %struct.HEVCHdrParams, i32, i32, i32, i32, i32, i32, [7 x %struct.anon.4], i32, %struct.VUI, %struct.PTL, %struct.ScalingList, i32, [64 x %struct.ShortTermRPS], [32 x i16], i32, i8, %struct.anon.5, i32, i32, i32, i32, i32, i32, i32, i32, i32, i8, i8, i8, i8, i8, i8, i8, i8, i8, i8, i8, i8, i8, i8, i8, i8, i8, i8, i8, i8, i8, i8, i8, i8, i8, i8, i8, i8, i8, i8, i32, i32, i32, [3 x [128 x i32]], i32, i32, i32, i32, i32, i32, i32, i32, i32, i32, i32, i32, i32, [3 x i32], [3 x i32], i32, ptr, i32, ptr }
%struct.HEVCWindow = type { i32, i32, i32, i32 }
%struct.HEVCHdrParams = type { %struct.HEVCHdrFlagParams, i8, i8, i8, i8, i8, i8, i8, i8, i8, i8, i8, i8, i8, [7 x i8], [7 x i16], [7 x %struct.HEVCSublayerHdrParams], [7 x %struct.HEVCSublayerHdrParams] }
%struct.HEVCHdrFlagParams = type { i8, i8, i8 }
%struct.HEVCSublayerHdrParams = type { [32 x i32], [32 x i32], [32 x i32], [32 x i32], i32 }
%struct.anon.4 = type { i32, i32, i32 }
%struct.VUI = type { %struct.H2645VUI, i32, i32, i32, i32, %struct.HEVCWindow, i32, i32, i32, i32, i32, i32, i32, i32, i32, i32, i32, i32, i32, i32, i32 }
%struct.H2645VUI = type { %struct.AVRational, i32, i32, i32, i32, i32, i32, i32, i32, i32, i32, i32, i32, i32, i32, i32 }
%struct.ScalingList = type { [4 x [6 x [64 x i8]]], [2 x [6 x i8]] }
%struct.anon.5 = type { i8, i8, i32, i32 }
%struct.HEVCLocalContext = type { [199 x i8], [4 x i8], i8, ptr, ptr, %struct.CABACContext, ptr, i8, i8, i32, %struct.TransformUnit, i8, i8, i8, i8, i32, i32, [8 x i8], [11360 x i8], [11360 x i8], [4096 x i16], i32, %struct.CodingUnit, %struct.PredictionUnit, %struct.NeighbourAvailable, i32, [128 x i8] }
%struct.CABACContext = type { i32, i32, ptr, ptr, ptr }
%struct.TransformUnit = type { i32, i32, i32, i32, i32, i8, i8, i8, i8, i8 }
%struct.CodingUnit = type { i32, i32, i32, i32, i8, i8, i8 }
%struct.PredictionUnit = type { i32, i32, [4 x i8], %struct.Mv, i8, [4 x i8], [4 x i8] }
%struct.Mv = type { i16, i16 }
%struct.NeighbourAvailable = type { i32, i32, i32, i32, i32, i32 }
%struct.MvField = type { [2 x %struct.Mv], [2 x i8], i8 }

; Function Attrs: nounwind uwtable
define internal void @intra_prediction_unit_default_value(ptr noundef %0, ptr noundef %1, ptr noundef %2, i32 noundef %3, i32 noundef %4, i32 noundef %5) #0 {
  %7 = alloca ptr, align 8
  %8 = alloca ptr, align 8
  %9 = alloca ptr, align 8
  %10 = alloca i32, align 4
  %11 = alloca i32, align 4
  %12 = alloca i32, align 4
  %13 = alloca ptr, align 8
  %14 = alloca i32, align 4
  %15 = alloca i32, align 4
  %16 = alloca i32, align 4
  %17 = alloca ptr, align 8
  %18 = alloca i32, align 4
  %19 = alloca i32, align 4
  %20 = alloca i32, align 4
  %21 = alloca i32, align 4
  store ptr %0, ptr %7, align 8, !tbaa !512
  store ptr %1, ptr %8, align 8, !tbaa !95
  store ptr %2, ptr %9, align 8, !tbaa !107
  store i32 %3, ptr %10, align 4, !tbaa !70
  store i32 %4, ptr %11, align 4, !tbaa !70
  store i32 %5, ptr %12, align 4, !tbaa !70
  call void @llvm.lifetime.start.p0(i64 8, ptr %13) #12
  %22 = load ptr, ptr %7, align 8, !tbaa !512
  %23 = getelementptr inbounds nuw %struct.HEVCLocalContext, ptr %22, i32 0, i32 4
  %24 = load ptr, ptr %23, align 8, !tbaa !235
  store ptr %24, ptr %13, align 8, !tbaa !4
  call void @llvm.lifetime.start.p0(i64 4, ptr %14) #12
  %25 = load i32, ptr %12, align 4, !tbaa !70
  %26 = shl i32 1, %25
  store i32 %26, ptr %14, align 4, !tbaa !70
  call void @llvm.lifetime.start.p0(i64 4, ptr %15) #12
  %27 = load i32, ptr %14, align 4, !tbaa !70
  %28 = load ptr, ptr %9, align 8, !tbaa !107
  %29 = getelementptr inbounds nuw %struct.HEVCSPS, ptr %28, i32 0, i32 27
  %30 = load i32, ptr %29, align 8, !tbaa !585
  %31 = ashr i32 %27, %30
  store i32 %31, ptr %15, align 4, !tbaa !70
  call void @llvm.lifetime.start.p0(i64 4, ptr %16) #12
  %32 = load ptr, ptr %9, align 8, !tbaa !107
  %33 = getelementptr inbounds nuw %struct.HEVCSPS, ptr %32, i32 0, i32 75
  %34 = load i32, ptr %33, align 4, !tbaa !205
  store i32 %34, ptr %16, align 4, !tbaa !70
  call void @llvm.lifetime.start.p0(i64 8, ptr %17) #12
  %35 = load ptr, ptr %13, align 8, !tbaa !4
  %36 = getelementptr inbounds nuw %struct.HEVCContext, ptr %35, i32 0, i32 19
  %37 = load ptr, ptr %36, align 8, !tbaa !310
  %38 = getelementptr inbounds nuw %struct.HEVCFrame, ptr %37, i32 0, i32 3
  %39 = load ptr, ptr %38, align 8, !tbaa !180
  store ptr %39, ptr %17, align 8, !tbaa !588
  call void @llvm.lifetime.start.p0(i64 4, ptr %18) #12
  %40 = load i32, ptr %10, align 4, !tbaa !70
  %41 = load ptr, ptr %9, align 8, !tbaa !107
  %42 = getelementptr inbounds nuw %struct.HEVCSPS, ptr %41, i32 0, i32 27
  %43 = load i32, ptr %42, align 8, !tbaa !585
  %44 = ashr i32 %40, %43
  store i32 %44, ptr %18, align 4, !tbaa !70
  call void @llvm.lifetime.start.p0(i64 4, ptr %19) #12
  %45 = load i32, ptr %11, align 4, !tbaa !70
  %46 = load ptr, ptr %9, align 8, !tbaa !107
  %47 = getelementptr inbounds nuw %struct.HEVCSPS, ptr %46, i32 0, i32 27
  %48 = load i32, ptr %47, align 8, !tbaa !585
  %49 = ashr i32 %45, %48
  store i32 %49, ptr %19, align 4, !tbaa !70
  call void @llvm.lifetime.start.p0(i64 4, ptr %20) #12
  call void @llvm.lifetime.start.p0(i64 4, ptr %21) #12
  %50 = load i32, ptr %15, align 4, !tbaa !70
  %51 = icmp eq i32 %50, 0
  br i1 %51, label %52, label %53

52:                                               ; preds = %6
  store i32 1, ptr %15, align 4, !tbaa !70
  br label %53

53:                                               ; preds = %52, %6
  store i32 0, ptr %20, align 4, !tbaa !70
  br label %54

54:                                               ; preds = %73, %53
  %55 = load i32, ptr %20, align 4, !tbaa !70
  %56 = load i32, ptr %15, align 4, !tbaa !70
  %57 = icmp slt i32 %55, %56
  br i1 %57, label %58, label %76

58:                                               ; preds = %54
  %59 = load ptr, ptr %8, align 8, !tbaa !95
  %60 = getelementptr inbounds nuw %struct.HEVCLayerContext, ptr %59, i32 0, i32 10
  %61 = load ptr, ptr %60, align 8, !tbaa !218
  %62 = load i32, ptr %19, align 4, !tbaa !70
  %63 = load i32, ptr %20, align 4, !tbaa !70
  %64 = add nsw i32 %62, %63
  %65 = load i32, ptr %16, align 4, !tbaa !70
  %66 = mul nsw i32 %64, %65
  %67 = load i32, ptr %18, align 4, !tbaa !70
  %68 = add nsw i32 %66, %67
  %69 = sext i32 %68 to i64
  %70 = getelementptr inbounds i8, ptr %61, i64 %69
  %71 = load i32, ptr %15, align 4, !tbaa !70
  %72 = sext i32 %71 to i64
  call void @llvm.memset.p0.i64(ptr align 1 %70, i8 1, i64 %72, i1 false)
  br label %73

73:                                               ; preds = %58
  %74 = load i32, ptr %20, align 4, !tbaa !70
  %75 = add nsw i32 %74, 1
  store i32 %75, ptr %20, align 4, !tbaa !70
  br label %54, !llvm.loop !597

76:                                               ; preds = %54
  %77 = load ptr, ptr %7, align 8, !tbaa !512
  %78 = getelementptr inbounds nuw %struct.HEVCLocalContext, ptr %77, i32 0, i32 22
  %79 = getelementptr inbounds nuw %struct.CodingUnit, ptr %78, i32 0, i32 2
  %80 = load i32, ptr %79, align 4, !tbaa !567
  %81 = icmp eq i32 %80, 1
  br i1 %81, label %82, label %114

82:                                               ; preds = %76
  store i32 0, ptr %20, align 4, !tbaa !70
  br label %83

83:                                               ; preds = %110, %82
  %84 = load i32, ptr %20, align 4, !tbaa !70
  %85 = load i32, ptr %15, align 4, !tbaa !70
  %86 = icmp slt i32 %84, %85
  br i1 %86, label %87, label %113

87:                                               ; preds = %83
  store i32 0, ptr %21, align 4, !tbaa !70
  br label %88

88:                                               ; preds = %106, %87
  %89 = load i32, ptr %21, align 4, !tbaa !70
  %90 = load i32, ptr %15, align 4, !tbaa !70
  %91 = icmp slt i32 %89, %90
  br i1 %91, label %92, label %109

92:                                               ; preds = %88
  %93 = load ptr, ptr %17, align 8, !tbaa !588
  %94 = load i32, ptr %19, align 4, !tbaa !70
  %95 = load i32, ptr %20, align 4, !tbaa !70
  %96 = add nsw i32 %94, %95
  %97 = load i32, ptr %16, align 4, !tbaa !70
  %98 = mul nsw i32 %96, %97
  %99 = load i32, ptr %18, align 4, !tbaa !70
  %100 = add nsw i32 %98, %99
  %101 = load i32, ptr %21, align 4, !tbaa !70
  %102 = add nsw i32 %100, %101
  %103 = sext i32 %102 to i64
  %104 = getelementptr inbounds %struct.MvField, ptr %93, i64 %103
  %105 = getelementptr inbounds nuw %struct.MvField, ptr %104, i32 0, i32 2
  store i8 0, ptr %105, align 2, !tbaa !595
  br label %106

106:                                              ; preds = %92
  %107 = load i32, ptr %21, align 4, !tbaa !70
  %108 = add nsw i32 %107, 1
  store i32 %108, ptr %21, align 4, !tbaa !70
  br label %88, !llvm.loop !598

109:                                              ; preds = %88
  br label %110

110:                                              ; preds = %109
  %111 = load i32, ptr %20, align 4, !tbaa !70
  %112 = add nsw i32 %111, 1
  store i32 %112, ptr %20, align 4, !tbaa !70
  br label %83, !llvm.loop !599

113:                                              ; preds = %83
  br label %114

114:                                              ; preds = %113, %76
  call void @llvm.lifetime.end.p0(i64 4, ptr %21) #12
  call void @llvm.lifetime.end.p0(i64 4, ptr %20) #12
  call void @llvm.lifetime.end.p0(i64 4, ptr %19) #12
  call void @llvm.lifetime.end.p0(i64 4, ptr %18) #12
  call void @llvm.lifetime.end.p0(i64 8, ptr %17) #12
  call void @llvm.lifetime.end.p0(i64 4, ptr %16) #12
  call void @llvm.lifetime.end.p0(i64 4, ptr %15) #12
  call void @llvm.lifetime.end.p0(i64 4, ptr %14) #12
  call void @llvm.lifetime.end.p0(i64 8, ptr %13) #12
  ret void
}