; Function Attrs: nofree norecurse nosync nounwind memory(readwrite, inaccessiblemem: none) uwtable
define internal fastcc void @intra_prediction_unit_default_value(ptr noundef readonly captures(none) %0, ptr noundef readonly captures(none) %1, i32 %.18616.val, i32 %.20252.val, i32 noundef %2, i32 noundef %3, i32 noundef %4) unnamed_addr #11 {
  %6 = getelementptr inbounds nuw i8, ptr %0, i64 216
  %7 = load ptr, ptr %6, align 8, !tbaa !232
  %8 = shl nuw i32 1, %4
  %9 = ashr i32 %8, %.18616.val
  %10 = getelementptr inbounds nuw i8, ptr %7, i64 11592
  %11 = load ptr, ptr %10, align 8, !tbaa !414
  %12 = getelementptr inbounds nuw i8, ptr %11, i64 32
  %13 = load ptr, ptr %12, align 8, !tbaa !99
  %14 = ashr i32 %2, %.18616.val
  %15 = ashr i32 %3, %.18616.val
  %spec.store.select = tail call i32 @llvm.umax.i32(i32 %9, i32 1)
  %16 = icmp sgt i32 %spec.store.select, 0
  br i1 %16, label %.lr.ph, label %.loopexit

.lr.ph:                                           ; preds = %5
  %17 = getelementptr inbounds nuw i8, ptr %1, i64 3392
  %18 = zext nneg i32 %spec.store.select to i64
  %19 = sext i32 %15 to i64
  %20 = sext i32 %.20252.val to i64
  %21 = sext i32 %14 to i64
  br label %22

22:                                               ; preds = %.lr.ph, %22
  %indvars.iv = phi i64 [ 0, %.lr.ph ], [ %indvars.iv.next, %22 ]
  %23 = load ptr, ptr %17, align 8, !tbaa !214
  %24 = add nsw i64 %indvars.iv, %19
  %25 = mul nsw i64 %24, %20
  %26 = getelementptr i8, ptr %23, i64 %25
  %27 = getelementptr i8, ptr %26, i64 %21
  tail call void @llvm.memset.p0.i64(ptr noundef nonnull align 1 dereferenceable(1) %27, i8 1, i64 %18, i1 false)
  %indvars.iv.next = add nuw nsw i64 %indvars.iv, 1
  %exitcond.not = icmp eq i64 %indvars.iv.next, %18
  br i1 %exitcond.not, label %._crit_edge, label %22, !llvm.loop !537

._crit_edge:                                      ; preds = %22
  %28 = getelementptr inbounds nuw i8, ptr %0, i64 31244
  %29 = load i32, ptr %28, align 4, !tbaa !528
  %30 = icmp eq i32 %29, 1
  br i1 %30, label %.preheader.us.preheader, label %.loopexit

.preheader.us.preheader:                          ; preds = %._crit_edge
  %31 = sext i32 %15 to i64
  %32 = sext i32 %.20252.val to i64
  %33 = sext i32 %14 to i64
  %wide.trip.count16 = zext nneg i32 %spec.store.select to i64
  br label %.preheader.us

.preheader.us:                                    ; preds = %.preheader.us.preheader, %._crit_edge5.us
  %indvars.iv13 = phi i64 [ 0, %.preheader.us.preheader ], [ %indvars.iv.next14, %._crit_edge5.us ]
  %34 = add nsw i64 %indvars.iv13, %31
  %35 = mul nsw i64 %34, %32
  %36 = add nsw i64 %35, %33
  br label %37

37:                                               ; preds = %.preheader.us, %37
  %indvars.iv8 = phi i64 [ 0, %.preheader.us ], [ %indvars.iv.next9, %37 ]
  %38 = add nsw i64 %36, %indvars.iv8
  %39 = getelementptr inbounds %struct.MvField, ptr %13, i64 %38, i32 2
  store i8 0, ptr %39, align 2, !tbaa !538
  %indvars.iv.next9 = add nuw nsw i64 %indvars.iv8, 1
  %exitcond12.not = icmp eq i64 %indvars.iv.next9, %wide.trip.count16
  br i1 %exitcond12.not, label %._crit_edge5.us, label %37, !llvm.loop !540

._crit_edge5.us:                                  ; preds = %37
  %indvars.iv.next14 = add nuw nsw i64 %indvars.iv13, 1
  %exitcond17.not = icmp eq i64 %indvars.iv.next14, %wide.trip.count16
  br i1 %exitcond17.not, label %.loopexit, label %.preheader.us, !llvm.loop !541

.loopexit:                                        ; preds = %._crit_edge5.us, %5, %._crit_edge
  ret void
}